Certificate:
    Data:
        Version: 3 (0x2)
        Serial Number: 1 (0x1)
        Signature Algorithm: sha1WithRSAEncryption
        Issuer: C=AU, ST=Some-State, O=Internet Widgits Pty Ltd, CN=abc
        Validity
            Not Before: Oct 27 23:27:20 2011 GMT
            Not After : Oct 26 23:27:20 2012 GMT
        Subject: C=AU, ST=Some-State, O=Internet Widgits Pty Ltd, CN=abc
        Subject Public Key Info:
            Public Key Algorithm: rsaEncryption
                Public-Key: (1024 bit)
                Modulus:
                    00:a3:44:53:23:74:d4:e6:1c:c0:01:af:52:ab:62:
                    4d:fd:ae:e9:1d:06:cb:18:43:04:63:37:bd:05:ac:
                    f6:c3:18:21:ff:cd:04:27:54:35:db:f7:00:59:2e:
                    21:1f:6e:7a:1b:7e:29:88:50:f1:1e:9e:89:12:2e:
                    02:95:09:73:27:19:9c:49:2e:01:35:9b:9a:3a:89:
                    85:83:1c:9a:51:22:64:07:e5:09:20:26:3f:1c:5e:
                    ee:6d:63:94:e9:71:90:75:bb:e6:08:e4:93:a3:21:
                    2c:3d:6f:28:0f:66:10:e8:45:3b:ab:ca:8c:db:c0:
                    46:da:bf:ab:27:40:ea:08:41
                Exponent: 65537 (0x10001)
        X509v3 extensions:
            X509v3 Basic Constraints: 
                CA:FALSE
            Netscape Comment: 
                OpenSSL Generated Certificate
            X509v3 Subject Key Identifier: 
                2C:74:D8:18:F0:30:15:73:07:79:62:B2:0E:7F:79:9A:35:A9:FE:7C
            X509v3 Authority Key Identifier: 
                keyid:25:A6:F9:D2:87:85:00:A8:10:CC:E2:FF:15:8F:39:DA:97:76:71:E0

    Signature Algorithm: sha1WithRSAEncryption
        00:6e:9d:e2:95:9f:33:67:58:d1:57:09:17:74:c4:82:be:95:
        95:3b:63:8f:fa:fc:aa:19:62:3d:ef:da:7a:55:55:15:7e:f4:
        68:5e:7e:e5:d6:1d:0a:11:2e:bd:0c:72:b2:47:9f:57:eb:30:
        22:89:20:30:c9:9b:8e:ec:f2:a9:df:4e:ee:6b:ae:8e:c5:24:
        d3:5c:01:79:87:c9:09:0f:92:b9:2c:a5:25:3a:b2:a8:05:01:
        6d:ec:44:23:7c:c7:1c:62:fd:15:dd:06:2b:2c:d5:a5:b9:25:
        41:fc:e4:bf:65:28:20:4e:b3:1d:42:f4:86:40:b7:8f:39:fa:
        7c:7a
-----BEGIN CERTIFICATE-----
MIIClzCCAgCgAwIBAgIBATANBgkqhkiG9w0BAQUFADBTMQswCQYDVQQGEwJBVTET
MBEGA1UECAwKU29tZS1TdGF0ZTEhMB8GA1UECgwYSW50ZXJuZXQgV2lkZ2l0cyBQ
dHkgTHRkMQwwCgYDVQQDDANhYmMwHhcNMTExMDI3MjMyNzIwWhcNMTIxMDI2MjMy
NzIwWjBTMQswCQYDVQQGEwJBVTETMBEGA1UECAwKU29tZS1TdGF0ZTEhMB8GA1UE
CgwYSW50ZXJuZXQgV2lkZ2l0cyBQdHkgTHRkMQwwCgYDVQQDDANhYmMwgZ8wDQYJ
KoZIhvcNAQEBBQADgY0AMIGJAoGBAKNEUyN01OYcwAGvUqtiTf2u6R0GyxhDBGM3
vQWs9sMYIf/NBCdUNdv3AFkuIR9ueht+KYhQ8R6eiRIuApUJcycZnEkuATWbmjqJ
hYMcmlEiZAflCSAmPxxe7m1jlOlxkHW75gjkk6MhLD1vKA9mEOhFO6vKjNvARtq/
qydA6ghBAgMBAAGjezB5MAkGA1UdEwQCMAAwLAYJYIZIAYb4QgENBB8WHU9wZW5T
U0wgR2VuZXJhdGVkIENlcnRpZmljYXRlMB0GA1UdDgQWBBQsdNgY8DAVcwd5YrIO
f3maNan+fDAfBgNVHSMEGDAWgBQlpvnSh4UAqBDM4v8Vjznal3Zx4DANBgkqhkiG
9w0BAQUFAAOBgQAAbp3ilZ8zZ1jRVwkXdMSCvpWVO2OP+vyqGWI979p6VVUVfvRo
Xn7l1h0KES69DHKyR59X6zAiiSAwyZuO7PKp307ua66OxSTTXAF5h8kJD5K5LKUl
OrKoBQFt7EQjfMccYv0V3QYrLNWluSVB/OS/ZSggTrMdQvSGQLePOfp8eg==
-----END CERTIFICATE-----
